; Function Attrs: nounwind uwtable
define internal void @weakref_dealloc(ptr noundef %0) #0 {
  tail call void @PyObject_GC_UnTrack(ptr noundef %0) #6
  %2 = getelementptr inbounds nuw i8, ptr %0, i64 16
  %3 = load ptr, ptr %2, align 8, !tbaa !37
  %.not.i.i = icmp eq ptr %3, @_Py_NoneStruct
  br i1 %.not.i.i, label %clear_weakref_lock_held.exit.i, label %4

4:                                                ; preds = %1
  %5 = getelementptr i8, ptr %3, i64 8
  %.val9.i.i.i = load ptr, ptr %5, align 8, !tbaa !4
  %6 = getelementptr i8, ptr %.val9.i.i.i, i64 168
  %.val9.val.i.i.i = load i64, ptr %6, align 8, !tbaa !21
  %7 = and i64 %.val9.val.i.i.i, 2147483648
  %.not10.i.i.i = icmp eq i64 %7, 0
  br i1 %.not10.i.i.i, label %19, label %8

8:                                                ; preds = %4
  %9 = getelementptr inbounds nuw i8, ptr %3, i64 168
  %10 = load i64, ptr %9, align 8, !tbaa !21
  %11 = and i64 %10, 2
  %.not8.i.i.i = icmp eq i64 %11, 0
  br i1 %.not8.i.i.i, label %19, label %12

12:                                               ; preds = %8
  %13 = tail call align 8 ptr @llvm.threadlocal.address.p0(ptr align 8 @_Py_tss_tstate)
  %14 = load ptr, ptr %13, align 8, !tbaa !22
  %15 = getelementptr inbounds nuw i8, ptr %14, i64 16
  %16 = load ptr, ptr %15, align 8, !tbaa !24
  %17 = tail call ptr @_PyStaticType_GetState(ptr noundef %16, ptr noundef nonnull %3) #6
  %18 = getelementptr inbounds nuw i8, ptr %17, i64 40
  br label %_PyObject_GET_WEAKREFS_LISTPTR.exit.i.i

19:                                               ; preds = %8, %4
  %20 = getelementptr inbounds nuw i8, ptr %.val9.i.i.i, i64 208
  %21 = load i64, ptr %20, align 8, !tbaa !10
  %22 = getelementptr i8, ptr %3, i64 %21
  br label %_PyObject_GET_WEAKREFS_LISTPTR.exit.i.i

_PyObject_GET_WEAKREFS_LISTPTR.exit.i.i:          ; preds = %19, %12
  %.0.i.i.i = phi ptr [ %18, %12 ], [ %22, %19 ]
  %23 = load ptr, ptr %.0.i.i.i, align 8, !tbaa !33
  %24 = icmp eq ptr %23, %0
  %25 = getelementptr inbounds nuw i8, ptr %0, i64 48
  %26 = load ptr, ptr %25, align 8, !tbaa !39
  br i1 %24, label %27, label %_PyObject_GET_WEAKREFS_LISTPTR.exit.i._crit_edge.i

27:                                               ; preds = %_PyObject_GET_WEAKREFS_LISTPTR.exit.i.i
  store ptr %26, ptr %.0.i.i.i, align 8, !tbaa !33
  br label %_PyObject_GET_WEAKREFS_LISTPTR.exit.i._crit_edge.i

_PyObject_GET_WEAKREFS_LISTPTR.exit.i._crit_edge.i: ; preds = %27, %_PyObject_GET_WEAKREFS_LISTPTR.exit.i.i
  store ptr @_Py_NoneStruct, ptr %2, align 8, !tbaa !37
  %28 = getelementptr inbounds nuw i8, ptr %0, i64 40
  %29 = load ptr, ptr %28, align 8, !tbaa !40
  %.not23.i.i = icmp eq ptr %29, null
  br i1 %.not23.i.i, label %._crit_edge.i.i, label %30

30:                                               ; preds = %_PyObject_GET_WEAKREFS_LISTPTR.exit.i._crit_edge.i
  %31 = getelementptr inbounds nuw i8, ptr %29, i64 48
  store ptr %26, ptr %31, align 8, !tbaa !39
  br label %._crit_edge.i.i

._crit_edge.i.i:                                  ; preds = %30, %_PyObject_GET_WEAKREFS_LISTPTR.exit.i._crit_edge.i
  %.not24.i.i = icmp eq ptr %26, null
  br i1 %.not24.i.i, label %34, label %32

32:                                               ; preds = %._crit_edge.i.i
  %33 = getelementptr inbounds nuw i8, ptr %26, i64 40
  store ptr %29, ptr %33, align 8, !tbaa !40
  br label %34

34:                                               ; preds = %32, %._crit_edge.i.i
  tail call void @llvm.memset.p0.i64(ptr noundef nonnull align 8 dereferenceable(16) %28, i8 0, i64 16, i1 false)
  br label %clear_weakref_lock_held.exit.i

clear_weakref_lock_held.exit.i:                   ; preds = %34, %1
  %35 = getelementptr inbounds nuw i8, ptr %0, i64 24
  %36 = load ptr, ptr %35, align 8, !tbaa !41
  store ptr null, ptr %35, align 8, !tbaa !41
  %.not.i2.i = icmp eq ptr %36, null
  br i1 %.not.i2.i, label %clear_weakref.exit, label %37

37:                                               ; preds = %clear_weakref_lock_held.exit.i
  %38 = load i32, ptr %36, align 8, !tbaa !42
  %.not.i.i.i = icmp sgt i32 %38, -1
  br i1 %.not.i.i.i, label %39, label %clear_weakref.exit

39:                                               ; preds = %37
  %40 = add nsw i32 %38, -1
  store i32 %40, ptr %36, align 8, !tbaa !42
  %41 = icmp eq i32 %40, 0
  br i1 %41, label %42, label %clear_weakref.exit

42:                                               ; preds = %39
  tail call void @_Py_Dealloc(ptr noundef nonnull %36) #6
  br label %clear_weakref.exit

clear_weakref.exit:                               ; preds = %clear_weakref_lock_held.exit.i, %37, %39, %42
  %43 = getelementptr i8, ptr %0, i64 8
  %.val = load ptr, ptr %43, align 8, !tbaa !4
  %44 = getelementptr inbounds nuw i8, ptr %.val, i64 320
  %45 = load ptr, ptr %44, align 8, !tbaa !43
  tail call void %45(ptr noundef nonnull %0) #6
  ret void
}